target datalayout = "e-m:e-p270:32:32-p271:32:32-p272:64:64-i64:64-i128:128-f80:128-n8:16:32:64-S128"
target triple = "x86_64-pc-linux-gnu"

%"class.Ipopt::ReferencedObject.base" = type <{ ptr, i32 }>
%"class.Ipopt::SmartPtr" = type { ptr }
%"class.Ipopt::RegisteredOptions" = type { %"class.Ipopt::ReferencedObject.base", %"class.std::map", %"class.std::map.16", i32, %"class.Ipopt::SmartPtr" }
%"class.std::map" = type { %"class.std::_Rb_tree" }
%"class.std::_Rb_tree" = type { %"struct.std::_Rb_tree<std::__cxx11::basic_string<char>, std::pair<const std::__cxx11::basic_string<char>, Ipopt::SmartPtr<Ipopt::RegisteredOption>>, std::_Select1st<std::pair<const std::__cxx11::basic_string<char>, Ipopt::SmartPtr<Ipopt::RegisteredOption>>>, std::less<std::__cxx11::basic_string<char>>>::_Rb_tree_impl" }
%"struct.std::_Rb_tree<std::__cxx11::basic_string<char>, std::pair<const std::__cxx11::basic_string<char>, Ipopt::SmartPtr<Ipopt::RegisteredOption>>, std::_Select1st<std::pair<const std::__cxx11::basic_string<char>, Ipopt::SmartPtr<Ipopt::RegisteredOption>>>, std::less<std::__cxx11::basic_string<char>>>::_Rb_tree_impl" = type { [8 x i8], %"struct.std::_Rb_tree_header" }
%"struct.std::_Rb_tree_header" = type { %"struct.std::_Rb_tree_node_base", i64 }
%"struct.std::_Rb_tree_node_base" = type { i32, ptr, ptr, ptr }
%"class.std::map.16" = type { %"class.std::_Rb_tree.17" }
%"class.std::_Rb_tree.17" = type { %"struct.std::_Rb_tree<std::__cxx11::basic_string<char>, std::pair<const std::__cxx11::basic_string<char>, Ipopt::SmartPtr<Ipopt::RegisteredCategory>>, std::_Select1st<std::pair<const std::__cxx11::basic_string<char>, Ipopt::SmartPtr<Ipopt::RegisteredCategory>>>, std::less<std::__cxx11::basic_string<char>>>::_Rb_tree_impl" }
%"struct.std::_Rb_tree<std::__cxx11::basic_string<char>, std::pair<const std::__cxx11::basic_string<char>, Ipopt::SmartPtr<Ipopt::RegisteredCategory>>, std::_Select1st<std::pair<const std::__cxx11::basic_string<char>, Ipopt::SmartPtr<Ipopt::RegisteredCategory>>>, std::less<std::__cxx11::basic_string<char>>>::_Rb_tree_impl" = type { [8 x i8], %"struct.std::_Rb_tree_header" }
%"class.Ipopt::SmartPtr.21" = type { ptr }
%"class.Ipopt::ReferencedObject" = type <{ ptr, i32, [4 x i8] }>

; Function Attrs: inlinehint mustprogress nounwind uwtable
define linkonce_odr noundef i32 @_ZNK5Ipopt16ReferencedObject14ReferenceCountEv(ptr noundef nonnull align 8 dereferenceable(12) %0) #7 comdat align 2 {
  %2 = alloca ptr, align 8
  store ptr %0, ptr %2, align 8, !tbaa !200
  %3 = load ptr, ptr %2, align 8
  %4 = getelementptr inbounds nuw %"class.Ipopt::ReferencedObject", ptr %3, i32 0, i32 1
  %5 = load i32, ptr %4, align 8, !tbaa !202
  ret i32 %5
}

; Function Attrs: inlinehint mustprogress nounwind uwtable
define linkonce_odr void @_ZNK5Ipopt16ReferencedObject10ReleaseRefEPKNS_10ReferencerE(ptr noundef nonnull align 8 dereferenceable(12) %0, ptr noundef %1) #7 comdat align 2 {
  %3 = alloca ptr, align 8
  %4 = alloca ptr, align 8
  store ptr %0, ptr %3, align 8, !tbaa !200
  store ptr %1, ptr %4, align 8, !tbaa !221
  %5 = load ptr, ptr %3, align 8
  %6 = getelementptr inbounds nuw %"class.Ipopt::ReferencedObject", ptr %5, i32 0, i32 1
  %7 = load i32, ptr %6, align 8, !tbaa !202
  %8 = add nsw i32 %7, -1
  store i32 %8, ptr %6, align 8, !tbaa !202
  ret void
}

; Function Attrs: inlinehint mustprogress nounwind uwtable
define linkonce_odr void @_ZNK5Ipopt16ReferencedObject6AddRefEPKNS_10ReferencerE(ptr noundef nonnull align 8 dereferenceable(12) %0, ptr noundef %1) #7 comdat align 2 {
  %3 = alloca ptr, align 8
  %4 = alloca ptr, align 8
  store ptr %0, ptr %3, align 8, !tbaa !200
  store ptr %1, ptr %4, align 8, !tbaa !221
  %5 = load ptr, ptr %3, align 8
  %6 = getelementptr inbounds nuw %"class.Ipopt::ReferencedObject", ptr %5, i32 0, i32 1
  %7 = load i32, ptr %6, align 8, !tbaa !202
  %8 = add nsw i32 %7, 1
  store i32 %8, ptr %6, align 8, !tbaa !202
  ret void
}

; Function Attrs: mustprogress nounwind uwtable
define linkonce_odr void @_ZN5Ipopt8SmartPtrINS_16RegisteredOptionEE15ReleasePointer_Ev(ptr noundef nonnull align 8 dereferenceable(8) %0) #6 comdat align 2 {
  %2 = alloca ptr, align 8
  store ptr %0, ptr %2, align 8, !tbaa !105
  %3 = load ptr, ptr %2, align 8
  %4 = getelementptr inbounds nuw %"class.Ipopt::SmartPtr.21", ptr %3, i32 0, i32 0
  %5 = load ptr, ptr %4, align 8, !tbaa !113
  %6 = icmp ne ptr %5, null
  br i1 %6, label %7, label %25

7:                                                ; preds = %1
  %8 = getelementptr inbounds nuw %"class.Ipopt::SmartPtr.21", ptr %3, i32 0, i32 0
  %9 = load ptr, ptr %8, align 8, !tbaa !113
  call void @_ZNK5Ipopt16ReferencedObject10ReleaseRefEPKNS_10ReferencerE(ptr noundef nonnull align 8 dereferenceable(12) %9, ptr noundef %3)
  %10 = getelementptr inbounds nuw %"class.Ipopt::SmartPtr.21", ptr %3, i32 0, i32 0
  %11 = load ptr, ptr %10, align 8, !tbaa !113
  %12 = call noundef i32 @_ZNK5Ipopt16ReferencedObject14ReferenceCountEv(ptr noundef nonnull align 8 dereferenceable(12) %11)
  %13 = icmp eq i32 %12, 0
  br i1 %13, label %14, label %24

14:                                               ; preds = %7
  %15 = getelementptr inbounds nuw %"class.Ipopt::SmartPtr.21", ptr %3, i32 0, i32 0
  %16 = load ptr, ptr %15, align 8, !tbaa !113
  %17 = icmp eq ptr %16, null
  br i1 %17, label %22, label %18

18:                                               ; preds = %14
  %19 = load ptr, ptr %16, align 8, !tbaa !31
  %20 = getelementptr inbounds ptr, ptr %19, i64 1
  %21 = load ptr, ptr %20, align 8
  call void %21(ptr noundef nonnull align 8 dereferenceable(220) %16) #3
  br label %22

22:                                               ; preds = %18, %14
  %23 = getelementptr inbounds nuw %"class.Ipopt::SmartPtr.21", ptr %3, i32 0, i32 0
  store ptr null, ptr %23, align 8, !tbaa !113
  br label %24

24:                                               ; preds = %22, %7
  br label %25

25:                                               ; preds = %24, %1
  ret void
}

; Function Attrs: mustprogress uwtable
define linkonce_odr noundef nonnull align 8 dereferenceable(8) ptr @_ZN5Ipopt8SmartPtrINS_16RegisteredOptionEE14SetFromRawPtr_EPS1_(ptr noundef nonnull align 8 dereferenceable(8) %0, ptr noundef %1) #4 comdat align 2 {
  %3 = alloca ptr, align 8
  %4 = alloca ptr, align 8
  store ptr %0, ptr %3, align 8, !tbaa !105
  store ptr %1, ptr %4, align 8, !tbaa !3
  %5 = load ptr, ptr %3, align 8
  %6 = load ptr, ptr %4, align 8, !tbaa !3
  %7 = icmp ne ptr %6, null
  br i1 %7, label %8, label %10

8:                                                ; preds = %2
  %9 = load ptr, ptr %4, align 8, !tbaa !3
  call void @_ZNK5Ipopt16ReferencedObject6AddRefEPKNS_10ReferencerE(ptr noundef nonnull align 8 dereferenceable(12) %9, ptr noundef %5)
  br label %10

10:                                               ; preds = %8, %2
  call void @_ZN5Ipopt8SmartPtrINS_16RegisteredOptionEE15ReleasePointer_Ev(ptr noundef nonnull align 8 dereferenceable(8) %5)
  %11 = load ptr, ptr %4, align 8, !tbaa !3
  %12 = getelementptr inbounds nuw %"class.Ipopt::SmartPtr.21", ptr %5, i32 0, i32 0
  store ptr %11, ptr %12, align 8, !tbaa !113
  ret ptr %5
}

; Function Attrs: mustprogress nounwind uwtable
define linkonce_odr void @_ZN5Ipopt8SmartPtrINS_16RegisteredOptionEED2Ev(ptr noundef nonnull align 8 dereferenceable(8) %0) unnamed_addr #6 comdat align 2 {
  %2 = alloca ptr, align 8
  store ptr %0, ptr %2, align 8, !tbaa !105
  %3 = load ptr, ptr %2, align 8
  call void @_ZN5Ipopt8SmartPtrINS_16RegisteredOptionEE15ReleasePointer_Ev(ptr noundef nonnull align 8 dereferenceable(8) %3)
  ret void
}

; Function Attrs: mustprogress nounwind uwtable
define linkonce_odr noundef ptr @_ZNK5Ipopt8SmartPtrINS_16RegisteredOptionEEptEv(ptr noundef nonnull align 8 dereferenceable(8) %0) #6 comdat align 2 {
  %2 = alloca ptr, align 8
  store ptr %0, ptr %2, align 8, !tbaa !105
  %3 = load ptr, ptr %2, align 8
  %4 = getelementptr inbounds nuw %"class.Ipopt::SmartPtr.21", ptr %3, i32 0, i32 0
  %5 = load ptr, ptr %4, align 8, !tbaa !113
  ret ptr %5
}

; Function Attrs: mustprogress uwtable
define linkonce_odr void @_ZN5Ipopt8SmartPtrINS_16RegisteredOptionEEC2EPS1_(ptr noundef nonnull align 8 dereferenceable(8) %0, ptr noundef %1) unnamed_addr #4 comdat align 2 {
  %3 = alloca ptr, align 8
  %4 = alloca ptr, align 8
  store ptr %0, ptr %3, align 8, !tbaa !105
  store ptr %1, ptr %4, align 8, !tbaa !3
  %5 = load ptr, ptr %3, align 8
  %6 = getelementptr inbounds nuw %"class.Ipopt::SmartPtr.21", ptr %5, i32 0, i32 0
  store ptr null, ptr %6, align 8, !tbaa !113
  %7 = load ptr, ptr %4, align 8, !tbaa !3
  %8 = call noundef nonnull align 8 dereferenceable(8) ptr @_ZN5Ipopt8SmartPtrINS_16RegisteredOptionEE14SetFromRawPtr_EPS1_(ptr noundef nonnull align 8 dereferenceable(8) %5, ptr noundef %7)
  ret void
}

; Function Attrs: mustprogress uwtable
define void @_ZN5Ipopt17RegisteredOptions28AddUpperBoundedIntegerOptionERKNSt7__cxx1112basic_stringIcSt11char_traitsIcESaIcEEES8_iiS8_b(ptr noundef nonnull align 8 dereferenceable(128) %0, ptr noundef nonnull align 8 dereferenceable(32) %1, ptr noundef nonnull align 8 dereferenceable(32) %2, i32 noundef %3, i32 noundef %4, ptr noundef nonnull align 8 dereferenceable(32) %5, i1 noundef zeroext %6) unnamed_addr #4 align 2 personality ptr @__gxx_personality_v0 {
  %8 = alloca ptr, align 8
  %9 = alloca ptr, align 8
  %10 = alloca ptr, align 8
  %11 = alloca i32, align 4
  %12 = alloca i32, align 4
  %13 = alloca ptr, align 8
  %14 = alloca i8, align 1
  %15 = alloca %"class.Ipopt::SmartPtr.21", align 8
  %16 = alloca ptr, align 8
  %17 = alloca i32, align 4
  %18 = alloca i32, align 4
  store ptr %0, ptr %8, align 8, !tbaa !90
  store ptr %1, ptr %9, align 8, !tbaa !44
  store ptr %2, ptr %10, align 8, !tbaa !44
  store i32 %3, ptr %11, align 4, !tbaa !82
  store i32 %4, ptr %12, align 4, !tbaa !82
  store ptr %5, ptr %13, align 8, !tbaa !44
  %19 = zext i1 %6 to i8
  store i8 %19, ptr %14, align 1, !tbaa !63
  %20 = load ptr, ptr %8, align 8
  call void @llvm.lifetime.start.p0(i64 8, ptr %15) #3
  %21 = call noalias noundef nonnull ptr @_Znwm(i64 noundef 224) #20
  %22 = load ptr, ptr %9, align 8, !tbaa !44
  %23 = load ptr, ptr %10, align 8, !tbaa !44
  %24 = load ptr, ptr %13, align 8, !tbaa !44
  %25 = getelementptr inbounds nuw %"class.Ipopt::RegisteredOptions", ptr %20, i32 0, i32 4
  %26 = getelementptr inbounds nuw %"class.Ipopt::RegisteredOptions", ptr %20, i32 0, i32 3
  %27 = load i32, ptr %26, align 8, !tbaa !119
  %28 = add nsw i32 %27, 1
  store i32 %28, ptr %26, align 8, !tbaa !119
  %29 = load i8, ptr %14, align 1, !tbaa !63, !range !29, !noundef !30
  %30 = trunc i8 %29 to i1
  invoke void @_ZN5Ipopt16RegisteredOptionC2ERKNSt7__cxx1112basic_stringIcSt11char_traitsIcESaIcEEES8_S8_RKNS_8SmartPtrINS_18RegisteredCategoryEEEib(ptr noundef nonnull align 8 dereferenceable(220) %21, ptr noundef nonnull align 8 dereferenceable(32) %22, ptr noundef nonnull align 8 dereferenceable(32) %23, ptr noundef nonnull align 8 dereferenceable(32) %24, ptr noundef nonnull align 8 dereferenceable(8) %25, i32 noundef %27, i1 noundef zeroext %30)
          to label %31 unwind label %51

31:                                               ; preds = %7
  call void @_ZN5Ipopt8SmartPtrINS_16RegisteredOptionEEC2EPS1_(ptr noundef nonnull align 8 dereferenceable(8) %15, ptr noundef %21)
  %32 = invoke noundef ptr @_ZNK5Ipopt8SmartPtrINS_16RegisteredOptionEEptEv(ptr noundef nonnull align 8 dereferenceable(8) %15)
          to label %33 unwind label %55

33:                                               ; preds = %31
  call void @llvm.lifetime.start.p0(i64 4, ptr %18) #3
  store i32 1, ptr %18, align 4, !tbaa !132
  %34 = load ptr, ptr %32, align 8, !tbaa !31
  %35 = getelementptr inbounds ptr, ptr %34, i64 10
  %36 = load ptr, ptr %35, align 8
  invoke void %36(ptr noundef nonnull align 8 dereferenceable(220) %32, ptr noundef nonnull align 4 dereferenceable(4) %18)
          to label %37 unwind label %59

37:                                               ; preds = %33
  call void @llvm.lifetime.end.p0(i64 4, ptr %18) #3
  %38 = invoke noundef ptr @_ZNK5Ipopt8SmartPtrINS_16RegisteredOptionEEptEv(ptr noundef nonnull align 8 dereferenceable(8) %15)
          to label %39 unwind label %55

39:                                               ; preds = %37
  %40 = load ptr, ptr %38, align 8, !tbaa !31
  %41 = getelementptr inbounds ptr, ptr %40, i64 30
  %42 = load ptr, ptr %41, align 8
  invoke void %42(ptr noundef nonnull align 8 dereferenceable(220) %38, ptr noundef nonnull align 4 dereferenceable(4) %12)
          to label %43 unwind label %55

43:                                               ; preds = %39
  %44 = invoke noundef ptr @_ZNK5Ipopt8SmartPtrINS_16RegisteredOptionEEptEv(ptr noundef nonnull align 8 dereferenceable(8) %15)
          to label %45 unwind label %55

45:                                               ; preds = %43
  %46 = load ptr, ptr %44, align 8, !tbaa !31
  %47 = getelementptr inbounds ptr, ptr %46, i64 25
  %48 = load ptr, ptr %47, align 8
  invoke void %48(ptr noundef nonnull align 8 dereferenceable(220) %44, ptr noundef nonnull align 4 dereferenceable(4) %11)
          to label %49 unwind label %55

49:                                               ; preds = %45
  invoke void @_ZN5Ipopt17RegisteredOptions9AddOptionERKNS_8SmartPtrINS_16RegisteredOptionEEE(ptr noundef nonnull align 8 dereferenceable(128) %20, ptr noundef nonnull align 8 dereferenceable(8) %15)
          to label %50 unwind label %55

50:                                               ; preds = %49
  call void @_ZN5Ipopt8SmartPtrINS_16RegisteredOptionEED2Ev(ptr noundef nonnull align 8 dereferenceable(8) %15) #3
  call void @llvm.lifetime.end.p0(i64 8, ptr %15) #3
  ret void

51:                                               ; preds = %7
  %52 = landingpad { ptr, i32 }
          cleanup
  %53 = extractvalue { ptr, i32 } %52, 0
  store ptr %53, ptr %16, align 8
  %54 = extractvalue { ptr, i32 } %52, 1
  store i32 %54, ptr %17, align 4
  call void @_ZdlPvm(ptr noundef %21, i64 noundef 224) #21
  br label %64

55:                                               ; preds = %49, %45, %43, %39, %37, %31
  %56 = landingpad { ptr, i32 }
          cleanup
  %57 = extractvalue { ptr, i32 } %56, 0
  store ptr %57, ptr %16, align 8
  %58 = extractvalue { ptr, i32 } %56, 1
  store i32 %58, ptr %17, align 4
  br label %63

59:                                               ; preds = %33
  %60 = landingpad { ptr, i32 }
          cleanup
  %61 = extractvalue { ptr, i32 } %60, 0
  store ptr %61, ptr %16, align 8
  %62 = extractvalue { ptr, i32 } %60, 1
  store i32 %62, ptr %17, align 4
  call void @llvm.lifetime.end.p0(i64 4, ptr %18) #3
  br label %63

63:                                               ; preds = %59, %55
  call void @_ZN5Ipopt8SmartPtrINS_16RegisteredOptionEED2Ev(ptr noundef nonnull align 8 dereferenceable(8) %15) #3
  br label %64

64:                                               ; preds = %63, %51
  call void @llvm.lifetime.end.p0(i64 8, ptr %15) #3
  br label %65

65:                                               ; preds = %64
  %66 = load ptr, ptr %16, align 8
  %67 = load i32, ptr %17, align 4
  %68 = insertvalue { ptr, i32 } poison, ptr %66, 0
  %69 = insertvalue { ptr, i32 } %68, i32 %67, 1
  resume { ptr, i32 } %69
}